target datalayout = "e-m:e-p270:32:32-p271:32:32-p272:64:64-i64:64-i128:128-f80:128-n8:16:32:64-S128"
target triple = "x86_64-pc-linux-gnu"

%struct.jvmtiInterface_1_ = type { ptr, ptr, ptr, ptr, ptr, ptr, ptr, ptr, ptr, ptr, ptr, ptr, ptr, ptr, ptr, ptr, ptr, ptr, ptr, ptr, ptr, ptr, ptr, ptr, ptr, ptr, ptr, ptr, ptr, ptr, ptr, ptr, ptr, ptr, ptr, ptr, ptr, ptr, ptr, ptr, ptr, ptr, ptr, ptr, ptr, ptr, ptr, ptr, ptr, ptr, ptr, ptr, ptr, ptr, ptr, ptr, ptr, ptr, ptr, ptr, ptr, ptr, ptr, ptr, ptr, ptr, ptr, ptr, ptr, ptr, ptr, ptr, ptr, ptr, ptr, ptr, ptr, ptr, ptr, ptr, ptr, ptr, ptr, ptr, ptr, ptr, ptr, ptr, ptr, ptr, ptr, ptr, ptr, ptr, ptr, ptr, ptr, ptr, ptr, ptr, ptr, ptr, ptr, ptr, ptr, ptr, ptr, ptr, ptr, ptr, ptr, ptr, ptr, ptr, ptr, ptr, ptr, ptr, ptr, ptr, ptr, ptr, ptr, ptr, ptr, ptr, ptr, ptr, ptr, ptr, ptr, ptr, ptr, ptr, ptr, ptr, ptr, ptr, ptr, ptr, ptr, ptr, ptr, ptr, ptr, ptr, ptr, ptr, ptr, ptr, ptr, ptr, ptr, ptr, ptr, ptr }
%struct._JPLISEnvironment = type { ptr, ptr, i8 }
%struct.jvmtiEventCallbacks = type { ptr, ptr, ptr, ptr, ptr, ptr, ptr, ptr, ptr, ptr, ptr, ptr, ptr, ptr, ptr, ptr, ptr, ptr, ptr, ptr, ptr, ptr, ptr, ptr, ptr, ptr, ptr, ptr, ptr, ptr, ptr, ptr, ptr, ptr, ptr, ptr, ptr, ptr, ptr }
%struct._JPLISAgent = type { ptr, %struct._JPLISEnvironment, %struct._JPLISEnvironment, ptr, ptr, ptr, ptr, i8, i8, i8, i8, ptr, ptr, ptr, i8 }
%struct.jvmtiCapabilities = type { i64, i64 }

@.str = private unnamed_addr constant [31 x i8] c"jvmtierror == JVMTI_ERROR_NONE\00", align 1
@.str.1 = private unnamed_addr constant [60 x i8] c"src/java.instrument/share/native/libinstrument/JPLISAgent.c\00", align 1

; Function Attrs: nounwind uwtable
define hidden void @checkCapabilities(ptr noundef %0) #0 {
  %2 = alloca ptr, align 8
  %3 = alloca ptr, align 8
  %4 = alloca %struct.jvmtiCapabilities, align 4
  %5 = alloca i32, align 4
  store ptr %0, ptr %2, align 8
  %6 = load ptr, ptr %2, align 8
  %7 = getelementptr inbounds %struct._JPLISAgent, ptr %6, i32 0, i32 1
  %8 = getelementptr inbounds %struct._JPLISEnvironment, ptr %7, i32 0, i32 0
  %9 = load ptr, ptr %8, align 8
  store ptr %9, ptr %3, align 8
  call void @llvm.memset.p0.i64(ptr align 4 %4, i8 0, i64 16, i1 false)
  %10 = load ptr, ptr %3, align 8
  %11 = load ptr, ptr %10, align 8
  %12 = getelementptr inbounds %struct.jvmtiInterface_1_, ptr %11, i32 0, i32 139
  %13 = load ptr, ptr %12, align 8
  %14 = load ptr, ptr %3, align 8
  %15 = call i32 %13(ptr noundef %14, ptr noundef %4)
  store i32 %15, ptr %5, align 4
  %16 = load i32, ptr %5, align 4
  %17 = icmp eq i32 %16, 112
  br i1 %17, label %18, label %19

18:                                               ; preds = %1
  br label %45

19:                                               ; preds = %1
  %20 = load i32, ptr %5, align 4
  %21 = icmp eq i32 %20, 0
  %22 = zext i1 %21 to i32
  %23 = trunc i32 %22 to i8
  call void @JPLISAssertCondition(i8 noundef zeroext %23, ptr noundef @.str, ptr noundef @.str.1, i32 noundef 680)
  %24 = load i32, ptr %5, align 4
  %25 = icmp eq i32 %24, 0
  br i1 %25, label %26, label %45

26:                                               ; preds = %19
  %27 = load i64, ptr %4, align 4
  %28 = lshr i64 %27, 9
  %29 = and i64 %28, 1
  %30 = trunc i64 %29 to i32
  %31 = icmp eq i32 %30, 1
  br i1 %31, label %32, label %35

32:                                               ; preds = %26
  %33 = load ptr, ptr %2, align 8
  %34 = getelementptr inbounds %struct._JPLISAgent, ptr %33, i32 0, i32 7
  store i8 1, ptr %34, align 8
  br label %35

35:                                               ; preds = %32, %26
  %36 = load i64, ptr %4, align 4
  %37 = lshr i64 %36, 36
  %38 = and i64 %37, 1
  %39 = trunc i64 %38 to i32
  %40 = icmp eq i32 %39, 1
  br i1 %40, label %41, label %44

41:                                               ; preds = %35
  %42 = load ptr, ptr %2, align 8
  %43 = getelementptr inbounds %struct._JPLISAgent, ptr %42, i32 0, i32 9
  store i8 1, ptr %43, align 2
  br label %44

44:                                               ; preds = %41, %35
  br label %45

45:                                               ; preds = %44, %19, %18
  ret void
}

; Function Attrs: nounwind uwtable
define hidden i32 @initializeJPLISAgent(ptr noundef %0, ptr noundef %1, ptr noundef %2, ptr noundef %3, i8 noundef zeroext %4) #0 {
  %6 = alloca i32, align 4
  %7 = alloca ptr, align 8
  %8 = alloca ptr, align 8
  %9 = alloca ptr, align 8
  %10 = alloca ptr, align 8
  %11 = alloca i8, align 1
  %12 = alloca i32, align 4
  %13 = alloca i32, align 4
  %14 = alloca %struct.jvmtiEventCallbacks, align 8
  store ptr %0, ptr %7, align 8
  store ptr %1, ptr %8, align 8
  store ptr %2, ptr %9, align 8
  store ptr %3, ptr %10, align 8
  store i8 %4, ptr %11, align 1
  store i32 0, ptr %12, align 4
  %15 = load ptr, ptr %8, align 8
  %16 = load ptr, ptr %7, align 8
  %17 = getelementptr inbounds %struct._JPLISAgent, ptr %16, i32 0, i32 0
  store ptr %15, ptr %17, align 8
  %18 = load ptr, ptr %9, align 8
  %19 = load ptr, ptr %7, align 8
  %20 = getelementptr inbounds %struct._JPLISAgent, ptr %19, i32 0, i32 1
  %21 = getelementptr inbounds %struct._JPLISEnvironment, ptr %20, i32 0, i32 0
  store ptr %18, ptr %21, align 8
  %22 = load ptr, ptr %7, align 8
  %23 = load ptr, ptr %7, align 8
  %24 = getelementptr inbounds %struct._JPLISAgent, ptr %23, i32 0, i32 1
  %25 = getelementptr inbounds %struct._JPLISEnvironment, ptr %24, i32 0, i32 1
  store ptr %22, ptr %25, align 8
  %26 = load ptr, ptr %7, align 8
  %27 = getelementptr inbounds %struct._JPLISAgent, ptr %26, i32 0, i32 1
  %28 = getelementptr inbounds %struct._JPLISEnvironment, ptr %27, i32 0, i32 2
  store i8 0, ptr %28, align 8
  %29 = load ptr, ptr %7, align 8
  %30 = getelementptr inbounds %struct._JPLISAgent, ptr %29, i32 0, i32 2
  %31 = getelementptr inbounds %struct._JPLISEnvironment, ptr %30, i32 0, i32 0
  store ptr null, ptr %31, align 8
  %32 = load ptr, ptr %7, align 8
  %33 = load ptr, ptr %7, align 8
  %34 = getelementptr inbounds %struct._JPLISAgent, ptr %33, i32 0, i32 2
  %35 = getelementptr inbounds %struct._JPLISEnvironment, ptr %34, i32 0, i32 1
  store ptr %32, ptr %35, align 8
  %36 = load ptr, ptr %7, align 8
  %37 = getelementptr inbounds %struct._JPLISAgent, ptr %36, i32 0, i32 2
  %38 = getelementptr inbounds %struct._JPLISEnvironment, ptr %37, i32 0, i32 2
  store i8 0, ptr %38, align 8
  %39 = load ptr, ptr %7, align 8
  %40 = getelementptr inbounds %struct._JPLISAgent, ptr %39, i32 0, i32 5
  store ptr null, ptr %40, align 8
  %41 = load ptr, ptr %7, align 8
  %42 = getelementptr inbounds %struct._JPLISAgent, ptr %41, i32 0, i32 3
  store ptr null, ptr %42, align 8
  %43 = load ptr, ptr %7, align 8
  %44 = getelementptr inbounds %struct._JPLISAgent, ptr %43, i32 0, i32 4
  store ptr null, ptr %44, align 8
  %45 = load ptr, ptr %7, align 8
  %46 = getelementptr inbounds %struct._JPLISAgent, ptr %45, i32 0, i32 6
  store ptr null, ptr %46, align 8
  %47 = load ptr, ptr %7, align 8
  %48 = getelementptr inbounds %struct._JPLISAgent, ptr %47, i32 0, i32 7
  store i8 0, ptr %48, align 8
  %49 = load ptr, ptr %7, align 8
  %50 = getelementptr inbounds %struct._JPLISAgent, ptr %49, i32 0, i32 8
  store i8 0, ptr %50, align 1
  %51 = load ptr, ptr %7, align 8
  %52 = getelementptr inbounds %struct._JPLISAgent, ptr %51, i32 0, i32 9
  store i8 0, ptr %52, align 2
  %53 = load ptr, ptr %7, align 8
  %54 = getelementptr inbounds %struct._JPLISAgent, ptr %53, i32 0, i32 10
  store i8 0, ptr %54, align 1
  %55 = load ptr, ptr %7, align 8
  %56 = getelementptr inbounds %struct._JPLISAgent, ptr %55, i32 0, i32 11
  store ptr null, ptr %56, align 8
  %57 = load ptr, ptr %7, align 8
  %58 = getelementptr inbounds %struct._JPLISAgent, ptr %57, i32 0, i32 12
  store ptr null, ptr %58, align 8
  %59 = load ptr, ptr %10, align 8
  %60 = load ptr, ptr %7, align 8
  %61 = getelementptr inbounds %struct._JPLISAgent, ptr %60, i32 0, i32 13
  store ptr %59, ptr %61, align 8
  %62 = load i8, ptr %11, align 1
  %63 = load ptr, ptr %7, align 8
  %64 = getelementptr inbounds %struct._JPLISAgent, ptr %63, i32 0, i32 14
  store i8 %62, ptr %64, align 8
  %65 = load ptr, ptr %9, align 8
  %66 = load ptr, ptr %65, align 8
  %67 = getelementptr inbounds %struct.jvmtiInterface_1_, ptr %66, i32 0, i32 147
  %68 = load ptr, ptr %67, align 8
  %69 = load ptr, ptr %9, align 8
  %70 = load ptr, ptr %7, align 8
  %71 = getelementptr inbounds %struct._JPLISAgent, ptr %70, i32 0, i32 1
  %72 = call i32 %68(ptr noundef %69, ptr noundef %71)
  store i32 %72, ptr %12, align 4
  %73 = load i32, ptr %12, align 4
  %74 = icmp eq i32 %73, 0
  %75 = zext i1 %74 to i32
  %76 = trunc i32 %75 to i8
  call void @JPLISAssertCondition(i8 noundef zeroext %76, ptr noundef @.str, ptr noundef @.str.1, i32 noundef 291)
  %77 = load ptr, ptr %7, align 8
  call void @checkCapabilities(ptr noundef %77)
  %78 = load ptr, ptr %9, align 8
  %79 = load ptr, ptr %78, align 8
  %80 = getelementptr inbounds %struct.jvmtiInterface_1_, ptr %79, i32 0, i32 132
  %81 = load ptr, ptr %80, align 8
  %82 = load ptr, ptr %9, align 8
  %83 = call i32 %81(ptr noundef %82, ptr noundef %13)
  store i32 %83, ptr %12, align 4
  %84 = load i32, ptr %12, align 4
  %85 = icmp eq i32 %84, 0
  %86 = zext i1 %85 to i32
  %87 = trunc i32 %86 to i8
  call void @JPLISAssertCondition(i8 noundef zeroext %87, ptr noundef @.str, ptr noundef @.str.1, i32 noundef 299)
  %88 = load i32, ptr %13, align 4
  %89 = icmp eq i32 %88, 4
  br i1 %89, label %90, label %91

90:                                               ; preds = %5
  store i32 0, ptr %6, align 4
  br label %136

91:                                               ; preds = %5
  %92 = load i32, ptr %13, align 4
  %93 = icmp ne i32 %92, 1
  br i1 %93, label %94, label %95

94:                                               ; preds = %91
  store i32 2, ptr %6, align 4
  br label %136

95:                                               ; preds = %91
  %96 = load i32, ptr %12, align 4
  %97 = icmp eq i32 %96, 0
  br i1 %97, label %98, label %114

98:                                               ; preds = %95
  call void @llvm.memset.p0.i64(ptr align 8 %14, i8 0, i64 312, i1 false)
  %99 = getelementptr inbounds %struct.jvmtiEventCallbacks, ptr %14, i32 0, i32 0
  store ptr @eventHandlerVMInit, ptr %99, align 8
  %100 = load ptr, ptr %9, align 8
  %101 = load ptr, ptr %100, align 8
  %102 = getelementptr inbounds %struct.jvmtiInterface_1_, ptr %101, i32 0, i32 121
  %103 = load ptr, ptr %102, align 8
  %104 = load ptr, ptr %9, align 8
  %105 = call i32 %103(ptr noundef %104, ptr noundef %14, i32 noundef 312)
  store i32 %105, ptr %12, align 4
  %106 = load i32, ptr %12, align 4
  %107 = icmp eq i32 %106, 112
  br i1 %107, label %108, label %109

108:                                              ; preds = %98
  store i32 2, ptr %6, align 4
  br label %136

109:                                              ; preds = %98
  %110 = load i32, ptr %12, align 4
  %111 = icmp eq i32 %110, 0
  %112 = zext i1 %111 to i32
  %113 = trunc i32 %112 to i8
  call void @JPLISAssertCondition(i8 noundef zeroext %113, ptr noundef @.str, ptr noundef @.str.1, i32 noundef 319)
  br label %114

114:                                              ; preds = %109, %95
  %115 = load i32, ptr %12, align 4
  %116 = icmp eq i32 %115, 0
  br i1 %116, label %117, label %132

117:                                              ; preds = %114
  %118 = load ptr, ptr %9, align 8
  %119 = load ptr, ptr %118, align 8
  %120 = getelementptr inbounds %struct.jvmtiInterface_1_, ptr %119, i32 0, i32 1
  %121 = load ptr, ptr %120, align 8
  %122 = load ptr, ptr %9, align 8
  %123 = call i32 (ptr, i32, i32, ptr, ...) %121(ptr noundef %122, i32 noundef 1, i32 noundef 50, ptr noundef null)
  store i32 %123, ptr %12, align 4
  %124 = load i32, ptr %12, align 4
  %125 = icmp eq i32 %124, 112
  br i1 %125, label %126, label %127

126:                                              ; preds = %117
  store i32 2, ptr %6, align 4
  br label %136

127:                                              ; preds = %117
  %128 = load i32, ptr %12, align 4
  %129 = icmp eq i32 %128, 0
  %130 = zext i1 %129 to i32
  %131 = trunc i32 %130 to i8
  call void @JPLISAssertCondition(i8 noundef zeroext %131, ptr noundef @.str, ptr noundef @.str.1, i32 noundef 329)
  br label %132

132:                                              ; preds = %127, %114
  %133 = load i32, ptr %12, align 4
  %134 = icmp eq i32 %133, 0
  %135 = select i1 %134, i32 0, i32 2
  store i32 %135, ptr %6, align 4
  br label %136

136:                                              ; preds = %132, %126, %108, %94, %90
  %137 = load i32, ptr %6, align 4
  ret i32 %137
}