; Function Attrs: nounwind uwtable
define hidden range(i32 0, 3) i32 @initializeJPLISAgent(ptr noundef %0, ptr noundef %1, ptr noundef %2, ptr noundef %3, i8 noundef zeroext %4) local_unnamed_addr #0 {
  %6 = alloca %struct.jvmtiCapabilities, align 8
  %7 = alloca i32, align 4
  %8 = alloca %struct.jvmtiEventCallbacks, align 8
  store ptr %1, ptr %0, align 8
  %9 = getelementptr inbounds i8, ptr %0, i64 8
  store ptr %2, ptr %9, align 8
  %10 = getelementptr inbounds i8, ptr %0, i64 16
  store ptr %0, ptr %10, align 8
  %11 = getelementptr inbounds i8, ptr %0, i64 24
  store i8 0, ptr %11, align 8
  %12 = getelementptr inbounds i8, ptr %0, i64 32
  store ptr null, ptr %12, align 8
  %13 = getelementptr inbounds i8, ptr %0, i64 40
  store ptr %0, ptr %13, align 8
  %14 = getelementptr inbounds i8, ptr %0, i64 48
  store i8 0, ptr %14, align 8
  %15 = getelementptr inbounds i8, ptr %0, i64 56
  %16 = getelementptr inbounds i8, ptr %0, i64 88
  %17 = getelementptr inbounds i8, ptr %0, i64 90
  %18 = getelementptr inbounds i8, ptr %0, i64 96
  %19 = getelementptr inbounds i8, ptr %0, i64 112
  tail call void @llvm.memset.p0.i64(ptr noundef nonnull align 8 dereferenceable(36) %15, i8 0, i64 36, i1 false)
  tail call void @llvm.memset.p0.i64(ptr noundef nonnull align 8 dereferenceable(16) %18, i8 0, i64 16, i1 false)
  store ptr %3, ptr %19, align 8
  %20 = getelementptr inbounds i8, ptr %0, i64 120
  store i8 %4, ptr %20, align 8
  %21 = load ptr, ptr %2, align 8
  %22 = getelementptr inbounds i8, ptr %21, i64 1176
  %23 = load ptr, ptr %22, align 8
  %24 = tail call i32 %23(ptr noundef nonnull %2, ptr noundef nonnull %9) #10
  %25 = icmp eq i32 %24, 0
  %26 = zext i1 %25 to i8
  tail call void @JPLISAssertCondition(i8 noundef zeroext %26, ptr noundef nonnull @.str, ptr noundef nonnull @.str.1, i32 noundef 291) #10
  call void @llvm.lifetime.start.p0(i64 16, ptr nonnull %6)
  %27 = load ptr, ptr %9, align 8
  call void @llvm.memset.p0.i64(ptr noundef nonnull align 8 dereferenceable(16) %6, i8 0, i64 16, i1 false)
  %28 = load ptr, ptr %27, align 8
  %29 = getelementptr inbounds i8, ptr %28, i64 1112
  %30 = load ptr, ptr %29, align 8
  %31 = call i32 %30(ptr noundef nonnull %27, ptr noundef nonnull %6) #10
  %32 = icmp eq i32 %31, 112
  br i1 %32, label %checkCapabilities.exit, label %33

33:                                               ; preds = %5
  %34 = icmp eq i32 %31, 0
  %35 = zext i1 %34 to i8
  call void @JPLISAssertCondition(i8 noundef zeroext %35, ptr noundef nonnull @.str, ptr noundef nonnull @.str.1, i32 noundef 680) #10
  br i1 %34, label %36, label %checkCapabilities.exit

36:                                               ; preds = %33
  %37 = load i64, ptr %6, align 8
  %38 = and i64 %37, 512
  %.not.i = icmp eq i64 %38, 0
  br i1 %.not.i, label %40, label %39

39:                                               ; preds = %36
  store i8 1, ptr %16, align 8
  br label %40

40:                                               ; preds = %39, %36
  %41 = and i64 %37, 68719476736
  %.not7.i = icmp eq i64 %41, 0
  br i1 %.not7.i, label %checkCapabilities.exit, label %42

42:                                               ; preds = %40
  store i8 1, ptr %17, align 2
  br label %checkCapabilities.exit

checkCapabilities.exit:                           ; preds = %5, %33, %40, %42
  call void @llvm.lifetime.end.p0(i64 16, ptr nonnull %6)
  %43 = load ptr, ptr %2, align 8
  %44 = getelementptr inbounds i8, ptr %43, i64 1056
  %45 = load ptr, ptr %44, align 8
  %46 = call i32 %45(ptr noundef nonnull %2, ptr noundef nonnull %7) #10
  %47 = icmp eq i32 %46, 0
  %48 = zext i1 %47 to i8
  call void @JPLISAssertCondition(i8 noundef zeroext %48, ptr noundef nonnull @.str, ptr noundef nonnull @.str.1, i32 noundef 299) #10
  %49 = load i32, ptr %7, align 4
  switch i32 %49, label %50 [
    i32 4, label %.critedge
    i32 1, label %51
  ]

50:                                               ; preds = %checkCapabilities.exit
  br label %.critedge

51:                                               ; preds = %checkCapabilities.exit
  br i1 %47, label %52, label %.critedge

52:                                               ; preds = %51
  %53 = getelementptr inbounds i8, ptr %8, i64 8
  call void @llvm.memset.p0.i64(ptr noundef nonnull align 8 dereferenceable(312) %53, i8 0, i64 304, i1 false)
  store ptr @eventHandlerVMInit, ptr %8, align 8
  %54 = load ptr, ptr %2, align 8
  %55 = getelementptr inbounds i8, ptr %54, i64 968
  %56 = load ptr, ptr %55, align 8
  %57 = call i32 %56(ptr noundef nonnull %2, ptr noundef nonnull %8, i32 noundef 312) #10
  %58 = icmp eq i32 %57, 112
  br i1 %58, label %.critedge, label %59

59:                                               ; preds = %52
  %60 = icmp eq i32 %57, 0
  %61 = zext i1 %60 to i8
  call void @JPLISAssertCondition(i8 noundef zeroext %61, ptr noundef nonnull @.str, ptr noundef nonnull @.str.1, i32 noundef 319) #10
  br i1 %60, label %62, label %.critedge

62:                                               ; preds = %59
  %63 = load ptr, ptr %2, align 8
  %64 = getelementptr inbounds i8, ptr %63, i64 8
  %65 = load ptr, ptr %64, align 8
  %66 = call i32 (ptr, i32, i32, ptr, ...) %65(ptr noundef nonnull %2, i32 noundef 1, i32 noundef 50, ptr noundef null) #10
  %67 = icmp eq i32 %66, 112
  br i1 %67, label %.critedge, label %68

68:                                               ; preds = %62
  %69 = icmp eq i32 %66, 0
  %70 = zext i1 %69 to i8
  call void @JPLISAssertCondition(i8 noundef zeroext %70, ptr noundef nonnull @.str, ptr noundef nonnull @.str.1, i32 noundef 329) #10
  %71 = select i1 %69, i32 0, i32 2
  br label %.critedge

.critedge:                                        ; preds = %59, %68, %51, %62, %52, %checkCapabilities.exit, %50
  %.044 = phi i32 [ 2, %50 ], [ 0, %checkCapabilities.exit ], [ 2, %52 ], [ 2, %62 ], [ %71, %68 ], [ 2, %59 ], [ 2, %51 ]
  ret i32 %.044
}